target datalayout = "e-m:e-p270:32:32-p271:32:32-p272:64:64-i64:64-i128:128-f80:128-n8:16:32:64-S128"
target triple = "x86_64-pc-linux-gnu"

%struct.SDL_WaylandSeat = type { ptr, ptr, ptr, ptr, ptr, %struct.wl_list, i32, i32, %struct.anon.1, %struct.anon.3, %struct.anon.6, %struct.anon.7, %struct.anon.8 }
%struct.wl_list = type { ptr, ptr }
%struct.anon.1 = type { ptr, ptr, ptr, ptr, ptr, %struct.SDL_WaylandKeyboardRepeat, i64, i16, i16, i32, i8, %struct.anon.2 }
%struct.SDL_WaylandKeyboardRepeat = type { i32, i32, i32, i8, i8, i32, i64, i64, i64, i32, [8 x i8] }
%struct.anon.2 = type { ptr, ptr, ptr, ptr, i32, i32, i32, i32, i32, i32, i32, i32, i32, i32, i32 }
%struct.anon.3 = type { ptr, ptr, ptr, ptr, ptr, ptr, ptr, ptr, i64, i32, i32, %struct.SDL_Point, i32, %struct.anon.4, %struct.anon.5 }
%struct.SDL_Point = type { i32, i32 }
%struct.anon.4 = type { i32, float, i32, float, i64, i32 }
%struct.anon.5 = type { ptr, ptr, ptr, i64, i64, i32 }
%struct.anon.6 = type { ptr, ptr, i64, %struct.wl_list }
%struct.anon.7 = type { ptr, %struct.SDL_Rect, i8, i8 }
%struct.SDL_Rect = type { i32, i32, i32, i32 }
%struct.anon.8 = type { ptr, %struct.wl_list }
%struct.SDL_AtomicInt = type { i32 }
%struct.SDL_WindowData = type { ptr, ptr, ptr, ptr, ptr, ptr, ptr, %union.anon, i32, i32, i32, i32, ptr, ptr, ptr, ptr, ptr, ptr, ptr, ptr, ptr, ptr, ptr, ptr, ptr, ptr, %struct.SDL_AtomicInt, ptr, i32, ptr, double, ptr, i32, i32, i32, i32, %struct.anon.14, %struct.anon.15, %struct.anon.16, %struct.anon.17, %struct.anon.18, %struct.anon.19, %struct.anon.20, i32, i32, i32, i64, i32, i32, i8, i8, i8, i8, i8, i8, i8, i8, i8, i8, i8, i8, i8, i8, i32, %struct.wl_list }
%union.anon = type { %struct.anon.10 }
%struct.anon.10 = type { ptr, %union.anon.11, i8 }
%union.anon.11 = type { %struct.anon.13 }
%struct.anon.13 = type { ptr, ptr }
%struct.anon.14 = type { double, double }
%struct.anon.15 = type { i32, i32, i32, i32 }
%struct.anon.16 = type { i32, i32, i32, i32 }
%struct.anon.17 = type { i32, i32 }
%struct.anon.18 = type { i32, i32 }
%struct.anon.19 = type { i32, i32 }
%struct.anon.20 = type { i32, i32, i8 }
%struct.SDL_Mouse = type { ptr, ptr, ptr, ptr, ptr, ptr, ptr, ptr, ptr, ptr, ptr, ptr, ptr, ptr, i8, float, float, ptr, float, float, float, float, float, float, float, float, double, double, i8, i8, i8, i8, i8, i8, i8, i8, i64, i8, float, i8, float, i8, i32, i32, i8, i8, i8, i8, i8, i8, i8, i8, i8, ptr, i32, ptr, ptr, ptr, ptr, i8, ptr }

@sys_cursors = internal global [10 x ptr] zeroinitializer, align 16

; Function Attrs: nounwind uwtable
define hidden void @Wayland_SeatUpdateCursor(ptr noundef %0) #0 {
  %2 = alloca ptr, align 8
  %3 = alloca ptr, align 8
  %4 = alloca ptr, align 8
  %5 = alloca i32, align 4
  store ptr %0, ptr %2, align 8
  call void @llvm.lifetime.start.p0(i64 8, ptr %3) #7
  %6 = call ptr @SDL_GetMouse()
  store ptr %6, ptr %3, align 8
  call void @llvm.lifetime.start.p0(i64 8, ptr %4) #7
  %7 = load ptr, ptr %2, align 8
  %8 = getelementptr inbounds nuw %struct.SDL_WaylandSeat, ptr %7, i32 0, i32 9
  %9 = getelementptr inbounds nuw %struct.anon.3, ptr %8, i32 0, i32 6
  %10 = load ptr, ptr %9, align 8
  store ptr %10, ptr %4, align 8
  %11 = load ptr, ptr %4, align 8
  %12 = icmp ne ptr %11, null
  br i1 %12, label %13, label %59

13:                                               ; preds = %1
  %14 = load ptr, ptr %3, align 8
  %15 = getelementptr inbounds nuw %struct.SDL_Mouse, ptr %14, i32 0, i32 59
  %16 = load i8, ptr %15, align 8, !range !5, !noundef !6
  %17 = trunc i8 %16 to i1
  br i1 %17, label %18, label %59

18:                                               ; preds = %13
  %19 = load ptr, ptr %2, align 8
  %20 = getelementptr inbounds nuw %struct.SDL_WaylandSeat, ptr %19, i32 0, i32 9
  %21 = getelementptr inbounds nuw %struct.anon.3, ptr %20, i32 0, i32 1
  %22 = load ptr, ptr %21, align 8
  %23 = icmp ne ptr %22, null
  br i1 %23, label %24, label %29

24:                                               ; preds = %18
  %25 = load ptr, ptr %3, align 8
  %26 = getelementptr inbounds nuw %struct.SDL_Mouse, ptr %25, i32 0, i32 31
  %27 = load i8, ptr %26, align 1, !range !5, !noundef !6
  %28 = trunc i8 %27 to i1
  br i1 %28, label %56, label %29

29:                                               ; preds = %24, %18
  call void @llvm.lifetime.start.p0(i64 4, ptr %5) #7
  %30 = load ptr, ptr %4, align 8
  %31 = getelementptr inbounds nuw %struct.SDL_WindowData, ptr %30, i32 0, i32 63
  %32 = load i32, ptr %31, align 8
  store i32 %32, ptr %5, align 4
  %33 = load ptr, ptr %2, align 8
  %34 = getelementptr inbounds nuw %struct.SDL_WaylandSeat, ptr %33, i32 0, i32 9
  %35 = getelementptr inbounds nuw %struct.anon.3, ptr %34, i32 0, i32 1
  %36 = load ptr, ptr %35, align 8
  %37 = icmp ne ptr %36, null
  br i1 %37, label %44, label %38

38:                                               ; preds = %29
  %39 = load i32, ptr %5, align 4
  %40 = icmp eq i32 %39, 0
  br i1 %40, label %44, label %41

41:                                               ; preds = %38
  %42 = load i32, ptr %5, align 4
  %43 = icmp eq i32 %42, 1
  br i1 %43, label %44, label %49

44:                                               ; preds = %41, %38, %29
  %45 = load ptr, ptr %2, align 8
  %46 = load ptr, ptr %3, align 8
  %47 = getelementptr inbounds nuw %struct.SDL_Mouse, ptr %46, i32 0, i32 58
  %48 = load ptr, ptr %47, align 8
  call void @Wayland_SeatSetCursor(ptr noundef %45, ptr noundef %48)
  br label %55

49:                                               ; preds = %41
  %50 = load ptr, ptr %2, align 8
  %51 = load i32, ptr %5, align 4
  %52 = zext i32 %51 to i64
  %53 = getelementptr inbounds nuw [10 x ptr], ptr @sys_cursors, i64 0, i64 %52
  %54 = load ptr, ptr %53, align 8
  call void @Wayland_SeatSetCursor(ptr noundef %50, ptr noundef %54)
  br label %55

55:                                               ; preds = %49, %44
  call void @llvm.lifetime.end.p0(i64 4, ptr %5) #7
  br label %58

56:                                               ; preds = %24
  %57 = load ptr, ptr %2, align 8
  call void @Wayland_SeatSetCursor(ptr noundef %57, ptr noundef null)
  br label %58

58:                                               ; preds = %56, %55
  br label %61

59:                                               ; preds = %13, %1
  %60 = load ptr, ptr %2, align 8
  call void @Wayland_SeatSetCursor(ptr noundef %60, ptr noundef null)
  br label %61

61:                                               ; preds = %59, %58
  call void @llvm.lifetime.end.p0(i64 8, ptr %4) #7
  call void @llvm.lifetime.end.p0(i64 8, ptr %3) #7
  ret void
}