; Function Attrs: nounwind uwtable
define hidden void @Wayland_SeatUpdateCursor(ptr noundef %0) local_unnamed_addr #0 {
  %2 = tail call ptr @SDL_GetMouse() #6
  %3 = getelementptr inbounds nuw i8, ptr %0, i64 320
  %4 = load ptr, ptr %3, align 8
  %.not = icmp eq ptr %4, null
  br i1 %.not, label %46, label %5

5:                                                ; preds = %1
  %6 = getelementptr inbounds nuw i8, ptr %2, i64 288
  %7 = load i8, ptr %6, align 8, !range !8, !noundef !9
  %8 = trunc nuw i8 %7 to i1
  br i1 %8, label %9, label %46

9:                                                ; preds = %5
  %10 = getelementptr inbounds nuw i8, ptr %0, i64 280
  %11 = load ptr, ptr %10, align 8
  %.not18 = icmp eq ptr %11, null
  br i1 %.not18, label %16, label %12

12:                                               ; preds = %9
  %13 = getelementptr inbounds nuw i8, ptr %2, i64 187
  %14 = load i8, ptr %13, align 1, !range !8, !noundef !9
  %15 = trunc nuw i8 %14 to i1
  br i1 %15, label %26, label %.thread

16:                                               ; preds = %9
  %17 = getelementptr inbounds nuw i8, ptr %4, i64 408
  %18 = load i32, ptr %17, align 8
  %19 = icmp ult i32 %18, 2
  br i1 %19, label %.thread, label %22

.thread:                                          ; preds = %12, %16
  %20 = getelementptr inbounds nuw i8, ptr %2, i64 280
  %21 = load ptr, ptr %20, align 8
  tail call fastcc void @Wayland_SeatSetCursor(ptr noundef nonnull %0, ptr noundef %21)
  br label %Wayland_SeatSetCursor.exit

22:                                               ; preds = %16
  %23 = zext i32 %18 to i64
  %24 = getelementptr inbounds nuw [10 x ptr], ptr @sys_cursors, i64 0, i64 %23
  %25 = load ptr, ptr %24, align 8
  tail call fastcc void @Wayland_SeatSetCursor(ptr noundef nonnull %0, ptr noundef %25)
  br label %Wayland_SeatSetCursor.exit

26:                                               ; preds = %12
  %27 = getelementptr inbounds nuw i8, ptr %0, i64 272
  %28 = load ptr, ptr %27, align 8
  %.not.i = icmp eq ptr %28, null
  br i1 %.not.i, label %Wayland_SeatSetCursor.exit, label %29

29:                                               ; preds = %26
  %30 = getelementptr inbounds nuw i8, ptr %0, i64 416
  %31 = load ptr, ptr %30, align 8
  %.not73.i = icmp eq ptr %31, null
  br i1 %.not73.i, label %37, label %32

32:                                               ; preds = %29
  %33 = getelementptr inbounds nuw i8, ptr %0, i64 328
  %34 = load ptr, ptr %33, align 8
  %.not74.i = icmp eq ptr %34, null
  br i1 %.not74.i, label %37, label %35

35:                                               ; preds = %32
  %36 = load ptr, ptr @WAYLAND_wl_proxy_destroy, align 8
  tail call void %36(ptr noundef nonnull %31) #6
  store ptr null, ptr %30, align 8
  %.pre = load ptr, ptr %27, align 8
  br label %37

37:                                               ; preds = %35, %32, %29
  %38 = phi ptr [ %.pre, %35 ], [ %28, %32 ], [ %28, %29 ]
  %39 = getelementptr inbounds nuw i8, ptr %0, i64 328
  store ptr null, ptr %39, align 8
  %40 = getelementptr inbounds nuw i8, ptr %0, i64 344
  %41 = load i32, ptr %40, align 8
  %42 = load ptr, ptr @WAYLAND_wl_proxy_marshal_flags, align 8
  %43 = load ptr, ptr @WAYLAND_wl_proxy_get_version, align 8
  %44 = tail call i32 %43(ptr noundef %38) #6
  %45 = tail call ptr (ptr, i32, ptr, i32, i32, ...) %42(ptr noundef %38, i32 noundef 0, ptr noundef null, i32 noundef %44, i32 noundef 0, i32 noundef %41, ptr noundef null, i32 noundef 0, i32 noundef 0) #6
  br label %Wayland_SeatSetCursor.exit

46:                                               ; preds = %5, %1
  %47 = getelementptr inbounds nuw i8, ptr %0, i64 272
  %48 = load ptr, ptr %47, align 8
  %.not.i19 = icmp eq ptr %48, null
  br i1 %.not.i19, label %Wayland_SeatSetCursor.exit, label %49

49:                                               ; preds = %46
  %50 = getelementptr inbounds nuw i8, ptr %0, i64 416
  %51 = load ptr, ptr %50, align 8
  %.not73.i20 = icmp eq ptr %51, null
  br i1 %.not73.i20, label %57, label %52

52:                                               ; preds = %49
  %53 = getelementptr inbounds nuw i8, ptr %0, i64 328
  %54 = load ptr, ptr %53, align 8
  %.not74.i21 = icmp eq ptr %54, null
  br i1 %.not74.i21, label %57, label %55

55:                                               ; preds = %52
  %56 = load ptr, ptr @WAYLAND_wl_proxy_destroy, align 8
  tail call void %56(ptr noundef nonnull %51) #6
  store ptr null, ptr %50, align 8
  %.pre24 = load ptr, ptr %47, align 8
  br label %57

57:                                               ; preds = %55, %52, %49
  %58 = phi ptr [ %.pre24, %55 ], [ %48, %52 ], [ %48, %49 ]
  %59 = getelementptr inbounds nuw i8, ptr %0, i64 328
  store ptr null, ptr %59, align 8
  %60 = getelementptr inbounds nuw i8, ptr %0, i64 344
  %61 = load i32, ptr %60, align 8
  %62 = load ptr, ptr @WAYLAND_wl_proxy_marshal_flags, align 8
  %63 = load ptr, ptr @WAYLAND_wl_proxy_get_version, align 8
  %64 = tail call i32 %63(ptr noundef %58) #6
  %65 = tail call ptr (ptr, i32, ptr, i32, i32, ...) %62(ptr noundef %58, i32 noundef 0, ptr noundef null, i32 noundef %64, i32 noundef 0, i32 noundef %61, ptr noundef null, i32 noundef 0, i32 noundef 0) #6
  br label %Wayland_SeatSetCursor.exit

Wayland_SeatSetCursor.exit:                       ; preds = %57, %46, %37, %26, %.thread, %22
  ret void
}